; Function Attrs: nofree nounwind memory(readwrite, argmem: read) uwtable
define noalias noundef ptr @Io_ConvertNumsToSop(ptr noundef readonly captures(none) %0, i32 noundef %1) local_unnamed_addr #8 {
  %3 = tail call noalias dereferenceable_or_null(16) ptr @malloc(i64 noundef 16) #17
  store i32 8, ptr %3, align 8
  %4 = tail call noalias dereferenceable_or_null(64) ptr @malloc(i64 noundef 64) #17
  %5 = getelementptr inbounds nuw i8, ptr %3, i64 8
  store ptr %4, ptr %5, align 8
  %6 = add nsw i32 %1, 3
  %7 = getelementptr i8, ptr %0, i64 4
  %.val = load i32, ptr %7, align 4
  %8 = mul nsw i32 %.val, %6
  %9 = add nsw i32 %8, 1
  %10 = sext i32 %9 to i64
  %11 = tail call noalias ptr @malloc(i64 noundef %10) #17
  %12 = sext i32 %8 to i64
  tail call void @llvm.memset.p0.i64(ptr align 1 %11, i8 45, i64 %12, i1 false)
  %13 = getelementptr inbounds i8, ptr %11, i64 %12
  store i8 0, ptr %13, align 1
  %14 = icmp sgt i32 %.val, 0
  br i1 %14, label %.lr.ph41, label %Vec_PtrPush.exit

.lr.ph41:                                         ; preds = %2
  %15 = getelementptr i8, ptr %0, i64 8
  %.val35 = load ptr, ptr %15, align 8
  %16 = sext i32 %1 to i64
  %17 = sext i32 %6 to i64
  %wide.trip.count = zext nneg i32 %.val to i64
  br label %18

18:                                               ; preds = %.lr.ph41, %.critedge2
  %indvars.iv43 = phi i64 [ 0, %.lr.ph41 ], [ %indvars.iv.next44, %.critedge2 ]
  %19 = getelementptr inbounds nuw %struct.Vec_Int_t_, ptr %.val35, i64 %indvars.iv43
  %20 = mul nsw i64 %indvars.iv43, %17
  %21 = getelementptr inbounds i8, ptr %11, i64 %20
  %22 = getelementptr i8, ptr %19, i64 4
  %.val3638 = load i32, ptr %22, align 4
  %23 = icmp sgt i32 %.val3638, 0
  br i1 %23, label %.lr.ph, label %.critedge2

.lr.ph:                                           ; preds = %18
  %24 = getelementptr i8, ptr %19, i64 8
  %.val37.pre = load ptr, ptr %24, align 8
  %25 = zext nneg i32 %.val3638 to i64
  br label %26

26:                                               ; preds = %.lr.ph, %26
  %indvars.iv = phi i64 [ 0, %.lr.ph ], [ %indvars.iv.next, %26 ]
  %27 = getelementptr inbounds nuw i32, ptr %.val37.pre, i64 %indvars.iv
  %28 = load i32, ptr %27, align 4
  %29 = trunc i32 %28 to i8
  %30 = and i8 %29, 1
  %31 = or disjoint i8 %30, 48
  %32 = ashr i32 %28, 1
  %33 = sext i32 %32 to i64
  %34 = getelementptr inbounds i8, ptr %21, i64 %33
  store i8 %31, ptr %34, align 1
  %indvars.iv.next = add nuw nsw i64 %indvars.iv, 1
  %35 = icmp samesign ult i64 %indvars.iv.next, %25
  br i1 %35, label %26, label %.critedge2, !llvm.loop !13

.critedge2:                                       ; preds = %26, %18
  %36 = getelementptr inbounds i8, ptr %21, i64 %16
  store i8 32, ptr %36, align 1
  %37 = getelementptr i8, ptr %36, i64 1
  store i8 48, ptr %37, align 1
  %38 = getelementptr i8, ptr %36, i64 2
  store i8 10, ptr %38, align 1
  %indvars.iv.next44 = add nuw nsw i64 %indvars.iv43, 1
  %exitcond.not = icmp eq i64 %indvars.iv.next44, %wide.trip.count
  br i1 %exitcond.not, label %Vec_PtrPush.exit, label %18, !llvm.loop !14

Vec_PtrPush.exit:                                 ; preds = %.critedge2, %2
  %39 = getelementptr inbounds nuw i8, ptr %3, i64 4
  store i32 1, ptr %39, align 4
  store ptr %11, ptr %4, align 8
  ret ptr %3
}